; Function Attrs: nounwind uwtable
define internal fastcc void @_release_job(ptr noundef %0, i32 noundef %1) unnamed_addr #0 {
  %3 = getelementptr inbounds nuw i8, ptr %0, i64 360
  %4 = load i32, ptr %3, align 8
  %.not = icmp eq i32 %4, 0
  br i1 %.not, label %find_job_record.exit.thread, label %5

5:                                                ; preds = %2
  %6 = load i64, ptr @_get_whole_hetjob.sched_update, align 8
  %7 = load i64, ptr @slurm_conf, align 8
  %.not.i = icmp eq i64 %6, %7
  br i1 %.not.i, label %_get_whole_hetjob.exit, label %8

8:                                                ; preds = %5
  store i64 %7, ptr @_get_whole_hetjob.sched_update, align 8
  %9 = load ptr, ptr getelementptr inbounds nuw (i8, ptr @slurm_conf, i64 1072), align 8
  %10 = tail call ptr @xstrcasestr(ptr noundef %9, ptr noundef nonnull @.str.319) #27
  %.not1.i = icmp eq ptr %10, null
  br i1 %.not1.i, label %11, label %_get_whole_hetjob.exit.thread

11:                                               ; preds = %8
  %12 = load ptr, ptr getelementptr inbounds nuw (i8, ptr @slurm_conf, i64 1072), align 8
  %13 = tail call ptr @xstrcasestr(ptr noundef %12, ptr noundef nonnull @.str.320) #27
  %.not2.i = icmp eq ptr %13, null
  br i1 %.not2.i, label %_get_whole_hetjob.exit.thread18, label %_get_whole_hetjob.exit.thread

_get_whole_hetjob.exit.thread:                    ; preds = %8, %11
  store i1 true, ptr @_get_whole_hetjob.whole_hetjob, align 1
  %.pre = load i32, ptr %3, align 8
  br label %14

_get_whole_hetjob.exit.thread18:                  ; preds = %11
  store i1 false, ptr @_get_whole_hetjob.whole_hetjob, align 1
  br label %find_job_record.exit.thread

_get_whole_hetjob.exit:                           ; preds = %5
  %.b3.pre.i = load i1, ptr @_get_whole_hetjob.whole_hetjob, align 1
  br i1 %.b3.pre.i, label %14, label %find_job_record.exit.thread

14:                                               ; preds = %_get_whole_hetjob.exit.thread, %_get_whole_hetjob.exit
  %15 = phi i32 [ %.pre, %_get_whole_hetjob.exit.thread ], [ %4, %_get_whole_hetjob.exit ]
  %16 = load ptr, ptr @job_hash, align 8
  %17 = load i32, ptr @hash_table_size, align 4
  %18 = urem i32 %15, %17
  %19 = zext i32 %18 to i64
  %20 = getelementptr inbounds nuw ptr, ptr %16, i64 %19
  %.07.i = load ptr, ptr %20, align 8
  %.not8.i = icmp eq ptr %.07.i, null
  br i1 %.not8.i, label %find_job_record.exit.thread, label %.lr.ph.i

.lr.ph.i:                                         ; preds = %14, %24
  %.09.i = phi ptr [ %.0.i, %24 ], [ %.07.i, %14 ]
  %21 = getelementptr inbounds nuw i8, ptr %.09.i, i64 392
  %22 = load i32, ptr %21, align 8
  %23 = icmp eq i32 %22, %15
  br i1 %23, label %find_job_record.exit, label %24

24:                                               ; preds = %.lr.ph.i
  %25 = getelementptr inbounds nuw i8, ptr %.09.i, i64 408
  %.0.i = load ptr, ptr %25, align 8
  %.not.i15 = icmp eq ptr %.0.i, null
  br i1 %.not.i15, label %find_job_record.exit.thread, label %.lr.ph.i, !llvm.loop !14

find_job_record.exit:                             ; preds = %.lr.ph.i
  %26 = getelementptr inbounds nuw i8, ptr %.09.i, i64 384
  %27 = load ptr, ptr %26, align 8
  %.not13 = icmp eq ptr %27, null
  br i1 %.not13, label %find_job_record.exit.thread, label %28

28:                                               ; preds = %find_job_record.exit
  %29 = tail call ptr @list_iterator_create(ptr noundef nonnull %27) #27
  %30 = tail call ptr @list_next(ptr noundef %29) #27
  %.not1423 = icmp eq ptr %30, null
  br i1 %.not1423, label %._crit_edge, label %.lr.ph

.lr.ph:                                           ; preds = %28, %.lr.ph
  %31 = phi ptr [ %32, %.lr.ph ], [ %30, %28 ]
  tail call fastcc void @_release_job_rec(ptr noundef nonnull %31, i32 noundef %1)
  %32 = tail call ptr @list_next(ptr noundef %29) #27
  %.not14 = icmp eq ptr %32, null
  br i1 %.not14, label %._crit_edge, label %.lr.ph, !llvm.loop !125

._crit_edge:                                      ; preds = %.lr.ph, %28
  tail call void @list_iterator_destroy(ptr noundef %29) #27
  br label %33

find_job_record.exit.thread:                      ; preds = %24, %14, %_get_whole_hetjob.exit.thread18, %2, %_get_whole_hetjob.exit, %find_job_record.exit
  tail call fastcc void @_release_job_rec(ptr noundef %0, i32 noundef %1)
  br label %33

33:                                               ; preds = %find_job_record.exit.thread, %._crit_edge
  ret void
}